target datalayout = "e-m:e-p270:32:32-p271:32:32-p272:64:64-i64:64-i128:128-f80:128-n8:16:32:64-S128"
target triple = "x86_64-pc-linux-gnu"

%struct.H5D_shared_t = type { i64, i8, i64, ptr, ptr, i64, i64, %struct.H5D_dcpl_cache_t, %struct.H5O_layout_t, i8, i32, [32 x i64], [32 x i64], [32 x i64], %struct.anon.6, %struct.H5D_append_flush_t, ptr, ptr }
%struct.H5D_dcpl_cache_t = type { %struct.H5O_fill_t, %struct.H5O_pline_t, %struct.H5O_efl_t }
%struct.H5O_fill_t = type { %struct.H5O_shared_t, i32, ptr, i64, ptr, i32, i32, i8 }
%struct.H5O_shared_t = type { i32, ptr, i32, %union.anon }
%union.anon = type { %struct.H5O_mesg_loc_t }
%struct.H5O_mesg_loc_t = type { i32, i64 }
%struct.H5O_pline_t = type { %struct.H5O_shared_t, i32, i64, i64, ptr }
%struct.H5O_efl_t = type { i64, i64, i64, ptr }
%struct.H5O_layout_t = type { i32, i32, ptr, %union.anon.0, %struct.H5O_storage_t }
%union.anon.0 = type { %struct.H5O_layout_chunk_t }
%struct.H5O_layout_chunk_t = type { i32, i8, i32, [33 x i32], i32, i32, i64, i64, [33 x i64], [33 x i64], [33 x i64], [33 x i64], %union.anon.1 }
%union.anon.1 = type { %struct.H5O_layout_chunk_earray_t }
%struct.H5O_layout_chunk_earray_t = type { %struct.anon.2, i32, [33 x i32], [33 x i64], [33 x i64] }
%struct.anon.2 = type { i8, i8, i8, i8, i8 }
%struct.H5O_storage_t = type { i32, %union.anon.4 }
%union.anon.4 = type { %struct.H5O_storage_virtual_t }
%struct.H5O_storage_virtual_t = type { %struct.H5HG_t, i64, ptr, i64, [32 x i64], i32, i64, i64, i64, i8 }
%struct.H5HG_t = type { i64, i64 }
%struct.anon.6 = type { %struct.H5D_rdcdc_t, %struct.H5D_rdcc_t }
%struct.H5D_rdcdc_t = type { ptr, i64, i64, i64, i8 }
%struct.H5D_rdcc_t = type { %struct.anon.7, i64, i64, double, ptr, ptr, ptr, i64, i32, %struct.H5D_chunk_cached_t, ptr, ptr, ptr, ptr, [32 x i64], [32 x i64], [32 x i32] }
%struct.anon.7 = type { i32, i32, i32, i32 }
%struct.H5D_chunk_cached_t = type { i8, [33 x i64], i64, i32, i64, i32 }
%struct.H5D_append_flush_t = type { i32, [32 x i64], ptr, ptr }
%struct.H5D_t = type { %struct.H5O_loc_t, %struct.H5G_name_t, ptr }
%struct.H5O_loc_t = type { ptr, i64, i8 }
%struct.H5G_name_t = type { ptr, ptr, i32 }
%struct.H5D_layout_ops_t = type { ptr, ptr, ptr, ptr, ptr, ptr, ptr, ptr, ptr, ptr, ptr, ptr, ptr }
%struct.H5O_storage_compact_t = type { i8, i64, ptr }
%struct.H5O_storage_contig_t = type { i64, i64 }

@H5D_init_g = external global i8, align 1
@H5_libterm_g = external global i8, align 1
@.str.2 = private unnamed_addr constant [100 x i8] c"generated/home/dtcxzyw/WorkSpace/Projects/compilers/llvm-opt-benchmark/bench/hdf5/hdf5/src/H5Dint.c\00", align 1
@H5E_DATASET_g = external global i64, align 8
@H5E_BADTYPE_g = external global i64, align 8
@H5E_CANTGET_g = external global i64, align 8
@H5E_ARGS_g = external global i64, align 8
@__func__.H5D__get_storage_size = private unnamed_addr constant [22 x i8] c"H5D__get_storage_size\00", align 1
@.str.86 = private unnamed_addr constant [46 x i8] c"can't retrieve chunked dataset allocated size\00", align 1
@.str.87 = private unnamed_addr constant [19 x i8] c"not a dataset type\00", align 1

; Function Attrs: nounwind uwtable
define i32 @H5D__get_storage_size(ptr noundef %0, ptr noundef %1) #0 {
  %3 = alloca ptr, align 8
  %4 = alloca ptr, align 8
  %5 = alloca i32, align 4
  %6 = alloca i64, align 8
  %7 = alloca i8, align 1
  store ptr %0, ptr %3, align 8, !tbaa !49
  store ptr %1, ptr %4, align 8, !tbaa !140
  call void @llvm.lifetime.start.p0(i64 4, ptr %5) #12
  store i32 0, ptr %5, align 4, !tbaa !3
  call void @llvm.lifetime.start.p0(i64 8, ptr %6) #12
  store i64 -1, ptr %6, align 8, !tbaa !11
  call void @llvm.lifetime.start.p0(i64 1, ptr %7) #12
  store i8 0, ptr %7, align 1, !tbaa !7
  %8 = load ptr, ptr %3, align 8, !tbaa !49
  %9 = getelementptr inbounds nuw %struct.H5D_t, ptr %8, i32 0, i32 0
  %10 = getelementptr inbounds nuw %struct.H5O_loc_t, ptr %9, i32 0, i32 1
  %11 = load i64, ptr %10, align 8, !tbaa !97
  call void @H5AC_tag(i64 noundef %11, ptr noundef %6)
  %12 = load i8, ptr @H5D_init_g, align 1, !tbaa !7, !range !9, !noundef !10
  %13 = trunc i8 %12 to i1
  br i1 %13, label %18, label %14

14:                                               ; preds = %2
  %15 = load i8, ptr @H5_libterm_g, align 1, !tbaa !7, !range !9, !noundef !10
  %16 = trunc i8 %15 to i1
  %17 = xor i1 %16, true
  br label %18

18:                                               ; preds = %14, %2
  %19 = phi i1 [ true, %2 ], [ %17, %14 ]
  %20 = xor i1 %19, true
  %21 = xor i1 %20, true
  %22 = zext i1 %21 to i32
  %23 = sext i32 %22 to i64
  %24 = call i64 @llvm.expect.i64(i64 %23, i64 1)
  %25 = icmp ne i64 %24, 0
  br i1 %25, label %26, label %138

26:                                               ; preds = %18
  %27 = load ptr, ptr %3, align 8, !tbaa !49
  %28 = getelementptr inbounds nuw %struct.H5D_t, ptr %27, i32 0, i32 2
  %29 = load ptr, ptr %28, align 8, !tbaa !61
  %30 = getelementptr inbounds nuw %struct.H5D_shared_t, ptr %29, i32 0, i32 8
  %31 = getelementptr inbounds nuw %struct.H5O_layout_t, ptr %30, i32 0, i32 0
  %32 = load i32, ptr %31, align 8, !tbaa !67
  switch i32 %32, label %117 [
    i32 2, label %33
    i32 1, label %76
    i32 0, label %104
    i32 3, label %114
    i32 -1, label %116
    i32 4, label %116
  ]

33:                                               ; preds = %26
  %34 = load ptr, ptr %3, align 8, !tbaa !49
  %35 = getelementptr inbounds nuw %struct.H5D_t, ptr %34, i32 0, i32 2
  %36 = load ptr, ptr %35, align 8, !tbaa !61
  %37 = getelementptr inbounds nuw %struct.H5D_shared_t, ptr %36, i32 0, i32 8
  %38 = getelementptr inbounds nuw %struct.H5O_layout_t, ptr %37, i32 0, i32 2
  %39 = load ptr, ptr %38, align 8, !tbaa !70
  %40 = getelementptr inbounds nuw %struct.H5D_layout_ops_t, ptr %39, i32 0, i32 2
  %41 = load ptr, ptr %40, align 8, !tbaa !71
  %42 = load ptr, ptr %3, align 8, !tbaa !49
  %43 = getelementptr inbounds nuw %struct.H5D_t, ptr %42, i32 0, i32 2
  %44 = load ptr, ptr %43, align 8, !tbaa !61
  %45 = getelementptr inbounds nuw %struct.H5D_shared_t, ptr %44, i32 0, i32 8
  %46 = getelementptr inbounds nuw %struct.H5O_layout_t, ptr %45, i32 0, i32 4
  %47 = call zeroext i1 %41(ptr noundef %46)
  br i1 %47, label %48, label %73

48:                                               ; preds = %33
  %49 = load ptr, ptr %3, align 8, !tbaa !49
  %50 = load ptr, ptr %4, align 8, !tbaa !140
  %51 = call i32 @H5D__chunk_allocated(ptr noundef %49, ptr noundef %50)
  %52 = icmp slt i32 %51, 0
  br i1 %52, label %53, label %72

53:                                               ; preds = %48
  br label %54

54:                                               ; preds = %53
  br label %55

55:                                               ; preds = %54
  br label %56

56:                                               ; preds = %55
  %57 = load i64, ptr @H5E_DATASET_g, align 8, !tbaa !11
  %58 = load i64, ptr @H5E_CANTGET_g, align 8, !tbaa !11
  %59 = call i32 (ptr, ptr, i32, i64, i64, ptr, ...) @H5E_printf_stack(ptr noundef @.str.2, ptr noundef @__func__.H5D__get_storage_size, i32 noundef 2557, i64 noundef %57, i64 noundef %58, ptr noundef @.str.86)
  br label %60

60:                                               ; preds = %56
  br label %61

61:                                               ; preds = %60
  store i8 1, ptr %7, align 1, !tbaa !7
  %62 = load i8, ptr %7, align 1, !tbaa !7, !range !9, !noundef !10
  %63 = trunc i8 %62 to i1
  %64 = zext i1 %63 to i8
  store i8 %64, ptr %7, align 1, !tbaa !7
  br label %65

65:                                               ; preds = %61
  br label %66

66:                                               ; preds = %65
  br label %67

67:                                               ; preds = %66
  store i32 -1, ptr %5, align 4, !tbaa !3
  br label %137

68:                                               ; No predecessors!
  br label %69

69:                                               ; preds = %68
  br label %70

70:                                               ; preds = %69
  br label %71

71:                                               ; preds = %70
  br label %72

72:                                               ; preds = %71, %48
  br label %75

73:                                               ; preds = %33
  %74 = load ptr, ptr %4, align 8, !tbaa !140
  store i64 0, ptr %74, align 8, !tbaa !11
  br label %75

75:                                               ; preds = %73, %72
  br label %136

76:                                               ; preds = %26
  %77 = load ptr, ptr %3, align 8, !tbaa !49
  %78 = getelementptr inbounds nuw %struct.H5D_t, ptr %77, i32 0, i32 2
  %79 = load ptr, ptr %78, align 8, !tbaa !61
  %80 = getelementptr inbounds nuw %struct.H5D_shared_t, ptr %79, i32 0, i32 8
  %81 = getelementptr inbounds nuw %struct.H5O_layout_t, ptr %80, i32 0, i32 2
  %82 = load ptr, ptr %81, align 8, !tbaa !70
  %83 = getelementptr inbounds nuw %struct.H5D_layout_ops_t, ptr %82, i32 0, i32 2
  %84 = load ptr, ptr %83, align 8, !tbaa !71
  %85 = load ptr, ptr %3, align 8, !tbaa !49
  %86 = getelementptr inbounds nuw %struct.H5D_t, ptr %85, i32 0, i32 2
  %87 = load ptr, ptr %86, align 8, !tbaa !61
  %88 = getelementptr inbounds nuw %struct.H5D_shared_t, ptr %87, i32 0, i32 8
  %89 = getelementptr inbounds nuw %struct.H5O_layout_t, ptr %88, i32 0, i32 4
  %90 = call zeroext i1 %84(ptr noundef %89)
  br i1 %90, label %91, label %101

91:                                               ; preds = %76
  %92 = load ptr, ptr %3, align 8, !tbaa !49
  %93 = getelementptr inbounds nuw %struct.H5D_t, ptr %92, i32 0, i32 2
  %94 = load ptr, ptr %93, align 8, !tbaa !61
  %95 = getelementptr inbounds nuw %struct.H5D_shared_t, ptr %94, i32 0, i32 8
  %96 = getelementptr inbounds nuw %struct.H5O_layout_t, ptr %95, i32 0, i32 4
  %97 = getelementptr inbounds nuw %struct.H5O_storage_t, ptr %96, i32 0, i32 1
  %98 = getelementptr inbounds nuw %struct.H5O_storage_contig_t, ptr %97, i32 0, i32 1
  %99 = load i64, ptr %98, align 8, !tbaa !68
  %100 = load ptr, ptr %4, align 8, !tbaa !140
  store i64 %99, ptr %100, align 8, !tbaa !11
  br label %103

101:                                              ; preds = %76
  %102 = load ptr, ptr %4, align 8, !tbaa !140
  store i64 0, ptr %102, align 8, !tbaa !11
  br label %103

103:                                              ; preds = %101, %91
  br label %136

104:                                              ; preds = %26
  %105 = load ptr, ptr %3, align 8, !tbaa !49
  %106 = getelementptr inbounds nuw %struct.H5D_t, ptr %105, i32 0, i32 2
  %107 = load ptr, ptr %106, align 8, !tbaa !61
  %108 = getelementptr inbounds nuw %struct.H5D_shared_t, ptr %107, i32 0, i32 8
  %109 = getelementptr inbounds nuw %struct.H5O_layout_t, ptr %108, i32 0, i32 4
  %110 = getelementptr inbounds nuw %struct.H5O_storage_t, ptr %109, i32 0, i32 1
  %111 = getelementptr inbounds nuw %struct.H5O_storage_compact_t, ptr %110, i32 0, i32 1
  %112 = load i64, ptr %111, align 8, !tbaa !68
  %113 = load ptr, ptr %4, align 8, !tbaa !140
  store i64 %112, ptr %113, align 8, !tbaa !11
  br label %136

114:                                              ; preds = %26
  %115 = load ptr, ptr %4, align 8, !tbaa !140
  store i64 0, ptr %115, align 8, !tbaa !11
  br label %136

116:                                              ; preds = %26, %26
  br label %117

117:                                              ; preds = %26, %116
  br label %118

118:                                              ; preds = %117
  br label %119

119:                                              ; preds = %118
  br label %120

120:                                              ; preds = %119
  %121 = load i64, ptr @H5E_ARGS_g, align 8, !tbaa !11
  %122 = load i64, ptr @H5E_BADTYPE_g, align 8, !tbaa !11
  %123 = call i32 (ptr, ptr, i32, i64, i64, ptr, ...) @H5E_printf_stack(ptr noundef @.str.2, ptr noundef @__func__.H5D__get_storage_size, i32 noundef 2584, i64 noundef %121, i64 noundef %122, ptr noundef @.str.87)
  br label %124

124:                                              ; preds = %120
  br label %125

125:                                              ; preds = %124
  store i8 1, ptr %7, align 1, !tbaa !7
  %126 = load i8, ptr %7, align 1, !tbaa !7, !range !9, !noundef !10
  %127 = trunc i8 %126 to i1
  %128 = zext i1 %127 to i8
  store i8 %128, ptr %7, align 1, !tbaa !7
  br label %129

129:                                              ; preds = %125
  br label %130

130:                                              ; preds = %129
  br label %131

131:                                              ; preds = %130
  store i32 -1, ptr %5, align 4, !tbaa !3
  br label %137

132:                                              ; No predecessors!
  br label %133

133:                                              ; preds = %132
  br label %134

134:                                              ; preds = %133
  br label %135

135:                                              ; preds = %134
  br label %136

136:                                              ; preds = %135, %114, %104, %103, %75
  br label %137

137:                                              ; preds = %136, %131, %67
  br label %138

138:                                              ; preds = %137, %18
  %139 = load i64, ptr %6, align 8, !tbaa !11
  call void @H5AC_tag(i64 noundef %139, ptr noundef null)
  %140 = load i32, ptr %5, align 4, !tbaa !3
  call void @llvm.lifetime.end.p0(i64 1, ptr %7) #12
  call void @llvm.lifetime.end.p0(i64 8, ptr %6) #12
  call void @llvm.lifetime.end.p0(i64 4, ptr %5) #12
  ret i32 %140
}