; Function Attrs: nounwind uwtable
define range(i32 -1, 1) i32 @H5D__get_storage_size(ptr noundef %0, ptr noundef %1) local_unnamed_addr #0 {
  %3 = alloca i64, align 8
  call void @llvm.lifetime.start.p0(i64 8, ptr nonnull %3) #12
  store i64 -1, ptr %3, align 8, !tbaa !10
  %4 = getelementptr inbounds nuw i8, ptr %0, i64 8
  %5 = load i64, ptr %4, align 8, !tbaa !82
  call void @H5AC_tag(i64 noundef %5, ptr noundef nonnull %3) #12
  %6 = load i8, ptr @H5D_init_g, align 1, !tbaa !3, !range !7, !noundef !8
  %7 = trunc nuw i8 %6 to i1
  %8 = load i8, ptr @H5_libterm_g, align 1, !range !7
  %9 = trunc nuw i8 %8 to i1
  %10 = xor i1 %9, true
  %11 = select i1 %7, i1 true, i1 %10
  br i1 %11, label %12, label %52, !prof !9

12:                                               ; preds = %2
  %13 = getelementptr inbounds nuw i8, ptr %0, i64 48
  %14 = load ptr, ptr %13, align 8, !tbaa !52
  %15 = getelementptr inbounds nuw i8, ptr %14, i64 248
  %16 = load i32, ptr %15, align 8, !tbaa !58
  switch i32 %16, label %48 [
    i32 2, label %17
    i32 1, label %32
    i32 0, label %44
    i32 3, label %47
  ]

17:                                               ; preds = %12
  %18 = getelementptr inbounds nuw i8, ptr %14, i64 256
  %19 = load ptr, ptr %18, align 8, !tbaa !62
  %20 = getelementptr inbounds nuw i8, ptr %19, i64 16
  %21 = load ptr, ptr %20, align 8, !tbaa !63
  %22 = getelementptr inbounds nuw i8, ptr %14, i64 2160
  %23 = call zeroext i1 %21(ptr noundef nonnull %22) #12
  br i1 %23, label %24, label %31

24:                                               ; preds = %17
  %25 = call i32 @H5D__chunk_allocated(ptr noundef nonnull %0, ptr noundef %1) #12
  %26 = icmp slt i32 %25, 0
  br i1 %26, label %27, label %52

27:                                               ; preds = %24
  %28 = load i64, ptr @H5E_DATASET_g, align 8, !tbaa !10
  %29 = load i64, ptr @H5E_CANTGET_g, align 8, !tbaa !10
  %30 = call i32 (ptr, ptr, i32, i64, i64, ptr, ...) @H5E_printf_stack(ptr noundef nonnull @.str.2, ptr noundef nonnull @__func__.H5D__get_storage_size, i32 noundef 2557, i64 noundef %28, i64 noundef %29, ptr noundef nonnull @.str.86) #12
  br label %52

31:                                               ; preds = %17
  store i64 0, ptr %1, align 8, !tbaa !10
  br label %52

32:                                               ; preds = %12
  %33 = getelementptr inbounds nuw i8, ptr %14, i64 256
  %34 = load ptr, ptr %33, align 8, !tbaa !62
  %35 = getelementptr inbounds nuw i8, ptr %34, i64 16
  %36 = load ptr, ptr %35, align 8, !tbaa !63
  %37 = getelementptr inbounds nuw i8, ptr %14, i64 2160
  %38 = call zeroext i1 %36(ptr noundef nonnull %37) #12
  br i1 %38, label %39, label %43

39:                                               ; preds = %32
  %40 = load ptr, ptr %13, align 8, !tbaa !52
  %41 = getelementptr inbounds nuw i8, ptr %40, i64 2176
  %42 = load i64, ptr %41, align 8, !tbaa !59
  store i64 %42, ptr %1, align 8, !tbaa !10
  br label %52

43:                                               ; preds = %32
  store i64 0, ptr %1, align 8, !tbaa !10
  br label %52

44:                                               ; preds = %12
  %45 = getelementptr inbounds nuw i8, ptr %14, i64 2176
  %46 = load i64, ptr %45, align 8, !tbaa !59
  store i64 %46, ptr %1, align 8, !tbaa !10
  br label %52

47:                                               ; preds = %12
  store i64 0, ptr %1, align 8, !tbaa !10
  br label %52

48:                                               ; preds = %12
  %49 = load i64, ptr @H5E_ARGS_g, align 8, !tbaa !10
  %50 = load i64, ptr @H5E_BADTYPE_g, align 8, !tbaa !10
  %51 = call i32 (ptr, ptr, i32, i64, i64, ptr, ...) @H5E_printf_stack(ptr noundef nonnull @.str.2, ptr noundef nonnull @__func__.H5D__get_storage_size, i32 noundef 2584, i64 noundef %49, i64 noundef %50, ptr noundef nonnull @.str.87) #12
  br label %52

52:                                               ; preds = %27, %48, %39, %43, %31, %24, %47, %44, %2
  %.0 = phi i32 [ -1, %48 ], [ 0, %47 ], [ 0, %44 ], [ 0, %39 ], [ 0, %43 ], [ -1, %27 ], [ 0, %24 ], [ 0, %31 ], [ 0, %2 ]
  %53 = load i64, ptr %3, align 8, !tbaa !10
  call void @H5AC_tag(i64 noundef %53, ptr noundef null) #12
  call void @llvm.lifetime.end.p0(i64 8, ptr nonnull %3) #12
  ret i32 %.0
}